target datalayout = "e-m:e-p270:32:32-p271:32:32-p272:64:64-i64:64-i128:128-f80:128-n8:16:32:64-S128"
target triple = "x86_64-unknown-linux-gnu"

%"class.std::__cxx11::basic_string" = type { %"struct.std::__cxx11::basic_string<char>::_Alloc_hider", i64, %union.anon }
%"struct.std::__cxx11::basic_string<char>::_Alloc_hider" = type { ptr }
%union.anon = type { i64, [8 x i8] }
%class.symbol = type { ptr }
%struct.smt_params = type { %struct.preprocessor_params.base, %struct.dyn_ack_params, %struct.qi_params, %struct.theory_arith_params.base, i8, %struct.theory_array_params.base, %struct.theory_bv_params, %struct.theory_str_params.base, %struct.theory_seq_params, %struct.theory_pb_params.base, %struct.theory_datatype_params, i8, i8, i8, i8, i8, i8, i32, i8, i32, double, double, i32, i32, i32, i32, i32, i8, i32, i32, i32, i32, i32, i32, i8, i32, i8, i8, i8, i8, i8, %class.symbol, i32, i32, i8, i8, i8, i8, i32, i8, i32, i32, double, i8, double, double, i32, i8, i32, i32, double, i32, i32, i32, i32, i32, double, i8, i8, i8, %class.symbol, i8, i8, i8, i8, i8, i8, i32, i8, i8, i8, i8, i8, i8, i8, i8, i8, double, i8, %class.symbol }
%struct.preprocessor_params.base = type <{ %struct.pattern_inference_params.base, %struct.bit_blaster_params, i32, i32, i8, i8, i8, i8, i8, i8, i8, i8, i8, i8, i8, i8, i8, i8, i8, i8, i8, i8, i8 }>
%struct.pattern_inference_params.base = type <{ i8, [3 x i8], i32, i8, i8, [2 x i8], i32, i8, [3 x i8], i32, i32, i8, [3 x i8], i32, i8, i8 }>
%struct.bit_blaster_params = type { i8, i8 }
%struct.dyn_ack_params = type { i32, i8, double, i32, i32, double }
%struct.qi_params = type { %"class.std::__cxx11::basic_string", %"class.std::__cxx11::basic_string", double, double, i32, i32, i8, i32, i32, i8, i8, i32, i8, i8, i8, i8, i32, i32, i32, i8, i32, ptr }
%struct.theory_arith_params.base = type <{ i8, i8, [2 x i8], i32, i8, [3 x i8], i32, i8, [3 x i8], i32, i8, i8, [2 x i8], i32, i32, i8, i8, [2 x i8], i32, i32, i8, [3 x i8], i32, i32, i8, [3 x i8], double, double, i8, [3 x i8], i32, i8, i8, i8, i8, i8, [3 x i8], i32, i32, i8, [3 x i8], i32, i8, i8, i8, i8, i8, i8, [2 x i8], i32, i8, i8, [2 x i8], i32, i8, [3 x i8], i32, i8, i8, i8 }>
%struct.theory_array_params.base = type <{ i8, i8, [2 x i8], i32, i8, i8, [2 x i8], i32, i8, i8, i8, i8, i32, i8 }>
%struct.theory_bv_params = type { i32, i8, i8, i8, i8, i32, i8, i8, i8, i8, i32 }
%struct.theory_str_params.base = type <{ i8, i8, i8, i8, i8, i8, i8, i8, double, i32, i32, i32, i32, i32, i8, i8 }>
%struct.theory_seq_params = type { i8, i8, i32, i32 }
%struct.theory_pb_params.base = type <{ i32, i8 }>
%struct.theory_datatype_params = type { i32 }
%struct.preprocessor_params = type <{ %struct.pattern_inference_params.base, %struct.bit_blaster_params, i32, i32, i8, i8, i8, i8, i8, i8, i8, i8, i8, i8, i8, i8, i8, i8, i8, i8, i8, i8, i8, i8 }>
%struct.theory_array_params = type <{ i8, i8, [2 x i8], i32, i8, i8, [2 x i8], i32, i8, i8, i8, i8, i32, i8, [3 x i8] }>
%struct.pattern_inference_params = type <{ i8, [3 x i8], i32, i8, i8, [2 x i8], i32, i8, [3 x i8], i32, i32, i8, [3 x i8], i32, i8, i8, [2 x i8] }>

; Function Attrs: mustprogress nounwind uwtable
define hidden void @_ZN10smt_params12setup_AUFLIAEb(ptr noundef nonnull align 8 dereferenceable(800) %this, i1 noundef zeroext %simple_array) #5 align 2 {
entry:
  %this.addr = alloca ptr, align 8
  %simple_array.addr = alloca i8, align 1
  store ptr %this, ptr %this.addr, align 8
  %frombool = zext i1 %simple_array to i8
  store i8 %frombool, ptr %simple_array.addr, align 1
  %this1 = load ptr, ptr %this.addr, align 8
  %0 = load i8, ptr %simple_array.addr, align 1
  %tobool = trunc i8 %0 to i1
  %cond = select i1 %tobool, i32 1, i32 3
  %add.ptr = getelementptr inbounds i8, ptr %this1, i64 392
  %m_array_mode = getelementptr inbounds %struct.theory_array_params, ptr %add.ptr, i32 0, i32 3
  store i32 %cond, ptr %m_array_mode, align 4
  %m_pi_use_database = getelementptr inbounds %struct.pattern_inference_params, ptr %this1, i32 0, i32 7
  store i8 1, ptr %m_pi_use_database, align 8
  %m_phase_selection = getelementptr inbounds %struct.smt_params, ptr %this1, i32 0, i32 24
  store i32 0, ptr %m_phase_selection, align 8
  %m_restart_strategy = getelementptr inbounds %struct.smt_params, ptr %this1, i32 0, i32 50
  store i32 0, ptr %m_restart_strategy, align 4
  %m_restart_factor = getelementptr inbounds %struct.smt_params, ptr %this1, i32 0, i32 52
  store double 1.500000e+00, ptr %m_restart_factor, align 8
  %m_eliminate_bounds = getelementptr inbounds %struct.preprocessor_params, ptr %this1, i32 0, i32 12
  store i8 1, ptr %m_eliminate_bounds, align 8
  %add.ptr2 = getelementptr inbounds i8, ptr %this1, i64 104
  %m_qi_quick_checker = getelementptr inbounds %struct.qi_params, ptr %add.ptr2, i32 0, i32 8
  store i32 1, ptr %m_qi_quick_checker, align 8
  %add.ptr3 = getelementptr inbounds i8, ptr %this1, i64 104
  %m_qi_lazy_threshold = getelementptr inbounds %struct.qi_params, ptr %add.ptr3, i32 0, i32 3
  store double 2.000000e+01, ptr %m_qi_lazy_threshold, align 8
  %add.ptr4 = getelementptr inbounds i8, ptr %this1, i64 104
  %m_mbqi = getelementptr inbounds %struct.qi_params, ptr %add.ptr4, i32 0, i32 15
  store i8 1, ptr %m_mbqi, align 1
  %m_ng_lift_ite = getelementptr inbounds %struct.preprocessor_params, ptr %this1, i32 0, i32 3
  %1 = load i32, ptr %m_ng_lift_ite, align 4
  %cmp = icmp eq i32 %1, 0
  br i1 %cmp, label %if.then, label %if.end

if.then:                                          ; preds = %entry
  %m_ng_lift_ite5 = getelementptr inbounds %struct.preprocessor_params, ptr %this1, i32 0, i32 3
  store i32 1, ptr %m_ng_lift_ite5, align 4
  br label %if.end

if.end:                                           ; preds = %if.then, %entry
  ret void
}