; Function Attrs: mustprogress nofree norecurse nosync nounwind willreturn memory(argmem: readwrite) uwtable
define hidden void @_ZN10smt_params12setup_AUFLIAEb(ptr nocapture noundef nonnull align 8 dereferenceable(800) %this, i1 noundef zeroext %simple_array) local_unnamed_addr #5 align 2 {
entry:
  %cond = select i1 %simple_array, i32 1, i32 3
  %m_array_mode = getelementptr inbounds i8, ptr %this, i64 396
  store i32 %cond, ptr %m_array_mode, align 4
  %m_pi_use_database = getelementptr inbounds i8, ptr %this, i64 16
  store i8 1, ptr %m_pi_use_database, align 8
  %m_phase_selection = getelementptr inbounds i8, ptr %this, i64 552
  store i32 0, ptr %m_phase_selection, align 8
  %m_restart_strategy = getelementptr inbounds i8, ptr %this, i64 636
  store i32 0, ptr %m_restart_strategy, align 4
  %m_restart_factor = getelementptr inbounds i8, ptr %this, i64 648
  store double 1.500000e+00, ptr %m_restart_factor, align 8
  %m_eliminate_bounds = getelementptr inbounds i8, ptr %this, i64 56
  store i8 1, ptr %m_eliminate_bounds, align 8
  %m_qi_quick_checker = getelementptr inbounds i8, ptr %this, i64 200
  store i32 1, ptr %m_qi_quick_checker, align 8
  %m_qi_lazy_threshold = getelementptr inbounds i8, ptr %this, i64 176
  store double 2.000000e+01, ptr %m_qi_lazy_threshold, align 8
  %m_mbqi = getelementptr inbounds i8, ptr %this, i64 215
  store i8 1, ptr %m_mbqi, align 1
  %m_ng_lift_ite = getelementptr inbounds i8, ptr %this, i64 44
  %0 = load i32, ptr %m_ng_lift_ite, align 4
  %cmp = icmp eq i32 %0, 0
  br i1 %cmp, label %if.then, label %if.end

if.then:                                          ; preds = %entry
  store i32 1, ptr %m_ng_lift_ite, align 4
  br label %if.end

if.end:                                           ; preds = %if.then, %entry
  ret void
}